target datalayout = "e-m:e-p270:32:32-p271:32:32-p272:64:64-i64:64-i128:128-f80:128-n8:16:32:64-S128"
target triple = "x86_64-pc-linux-gnu"

; Function Attrs: nounwind null_pointer_is_valid sspstrong uwtable
define internal zeroext i1 @iseries_parse_hex_string(ptr noundef %0, ptr noundef %1, i64 noundef %2) #8 {
  %4 = alloca i1, align 1
  %5 = alloca ptr, align 8
  %6 = alloca ptr, align 8
  %7 = alloca i64, align 8
  %8 = alloca i64, align 8
  %9 = alloca i32, align 4
  %10 = alloca i32, align 4
  %11 = alloca i8, align 1
  %12 = alloca i32, align 4
  store ptr %0, ptr %5, align 8
  store ptr %1, ptr %6, align 8
  store i64 %2, ptr %7, align 8
  call void @llvm.lifetime.start.p0(i64 8, ptr %8) #13
  call void @llvm.lifetime.start.p0(i64 4, ptr %9) #13
  call void @llvm.lifetime.start.p0(i64 4, ptr %10) #13
  call void @llvm.lifetime.start.p0(i64 1, ptr %11) #13
  store i32 0, ptr %9, align 4
  store i64 0, ptr %8, align 8
  br label %13

13:                                               ; preds = %60, %3
  %14 = load i64, ptr %8, align 8
  %15 = load i64, ptr %7, align 8
  %16 = icmp ult i64 %14, %15
  br i1 %16, label %17, label %63

17:                                               ; preds = %13
  %18 = load ptr, ptr %5, align 8
  %19 = load i64, ptr %8, align 8
  %20 = getelementptr i8, ptr %18, i64 %19
  %21 = load i8, ptr %20, align 1
  %22 = call i32 @g_ascii_xdigit_value(i8 noundef signext %21) #17
  store i32 %22, ptr %10, align 4
  %23 = load i64, ptr %8, align 8
  %24 = add i64 %23, 1
  store i64 %24, ptr %8, align 8
  %25 = load i32, ptr %10, align 4
  %26 = icmp eq i32 %25, -1
  br i1 %26, label %27, label %28

27:                                               ; preds = %17
  store i1 false, ptr %4, align 1
  store i32 1, ptr %12, align 4
  br label %64

28:                                               ; preds = %17
  %29 = load i32, ptr %10, align 4
  %30 = shl i32 %29, 4
  %31 = trunc i32 %30 to i8
  store i8 %31, ptr %11, align 1
  %32 = load i64, ptr %8, align 8
  %33 = load i64, ptr %7, align 8
  %34 = icmp uge i64 %32, %33
  br i1 %34, label %35, label %36

35:                                               ; preds = %28
  store i1 false, ptr %4, align 1
  store i32 1, ptr %12, align 4
  br label %64

36:                                               ; preds = %28
  %37 = load ptr, ptr %5, align 8
  %38 = load i64, ptr %8, align 8
  %39 = getelementptr i8, ptr %37, i64 %38
  %40 = load i8, ptr %39, align 1
  %41 = call i32 @g_ascii_xdigit_value(i8 noundef signext %40) #17
  store i32 %41, ptr %10, align 4
  %42 = load i32, ptr %10, align 4
  %43 = icmp eq i32 %42, -1
  br i1 %43, label %44, label %45

44:                                               ; preds = %36
  store i1 false, ptr %4, align 1
  store i32 1, ptr %12, align 4
  br label %64

45:                                               ; preds = %36
  %46 = load i32, ptr %10, align 4
  %47 = trunc i32 %46 to i8
  %48 = zext i8 %47 to i32
  %49 = load i8, ptr %11, align 1
  %50 = zext i8 %49 to i32
  %51 = or i32 %50, %48
  %52 = trunc i32 %51 to i8
  store i8 %52, ptr %11, align 1
  %53 = load i8, ptr %11, align 1
  %54 = load ptr, ptr %6, align 8
  %55 = load i32, ptr %9, align 4
  %56 = sext i32 %55 to i64
  %57 = getelementptr i8, ptr %54, i64 %56
  store i8 %53, ptr %57, align 1
  %58 = load i32, ptr %9, align 4
  %59 = add i32 %58, 1
  store i32 %59, ptr %9, align 4
  br label %60

60:                                               ; preds = %45
  %61 = load i64, ptr %8, align 8
  %62 = add i64 %61, 1
  store i64 %62, ptr %8, align 8
  br label %13, !llvm.loop !19

63:                                               ; preds = %13
  store i1 true, ptr %4, align 1
  store i32 1, ptr %12, align 4
  br label %64

64:                                               ; preds = %63, %44, %35, %27
  call void @llvm.lifetime.end.p0(i64 1, ptr %11) #13
  call void @llvm.lifetime.end.p0(i64 4, ptr %10) #13
  call void @llvm.lifetime.end.p0(i64 4, ptr %9) #13
  call void @llvm.lifetime.end.p0(i64 8, ptr %8) #13
  %65 = load i1, ptr %4, align 1
  ret i1 %65
}